target datalayout = "e-m:e-p270:32:32-p271:32:32-p272:64:64-i64:64-i128:128-f80:128-n8:16:32:64-S128"
target triple = "x86_64-pc-linux-gnu"

%struct.lv_point_t = type { i32, i32 }
%struct._lv_indev_t = type { i32, ptr, i32, i32, i8, i32, i32, ptr, ptr, ptr, ptr, i8, i8, i8, i8, i16, i16, i32, %struct.anon, %struct.anon.0, ptr, ptr, ptr, %struct.lv_event_list_t, ptr }
%struct.anon = type { %struct.lv_point_t, %struct.lv_point_t, %struct.lv_point_t, %struct.lv_point_t, %struct.lv_point_t, %struct.lv_point_t, %struct.lv_point_t, ptr, ptr, ptr, ptr, ptr, %struct.lv_area_t, %struct.lv_point_t, i32, i8, %struct.lv_point_t, i32, i16 }
%struct.lv_area_t = type { i32, i32, i32, i32 }
%struct.anon.0 = type { i32, i32 }
%struct.lv_event_list_t = type { %struct._lv_array_t, i8 }
%struct._lv_array_t = type { ptr, i32, i32, i32, i8 }

; Function Attrs: nounwind uwtable
define i32 @lv_indev_scroll_throw_predict(ptr noundef %0, i32 noundef %1) #0 {
  %3 = alloca i32, align 4
  %4 = alloca ptr, align 8
  %5 = alloca i32, align 4
  %6 = alloca i32, align 4
  %7 = alloca i32, align 4
  %8 = alloca i32, align 4
  %9 = alloca i32, align 4
  store ptr %0, ptr %4, align 8, !tbaa !3
  store i32 %1, ptr %5, align 4, !tbaa !21
  %10 = load ptr, ptr %4, align 8, !tbaa !3
  %11 = icmp eq ptr %10, null
  br i1 %11, label %12, label %13

12:                                               ; preds = %2
  store i32 0, ptr %3, align 4
  br label %48

13:                                               ; preds = %2
  call void @llvm.lifetime.start.p0(i64 4, ptr %6) #6
  %14 = load i32, ptr %5, align 4, !tbaa !21
  switch i32 %14, label %27 [
    i32 12, label %15
    i32 3, label %21
  ]

15:                                               ; preds = %13
  %16 = load ptr, ptr %4, align 8, !tbaa !3
  %17 = getelementptr inbounds nuw %struct._lv_indev_t, ptr %16, i32 0, i32 18
  %18 = getelementptr inbounds nuw %struct.anon, ptr %17, i32 0, i32 6
  %19 = getelementptr inbounds nuw %struct.lv_point_t, ptr %18, i32 0, i32 1
  %20 = load i32, ptr %19, align 4, !tbaa !50
  store i32 %20, ptr %6, align 4, !tbaa !21
  br label %28

21:                                               ; preds = %13
  %22 = load ptr, ptr %4, align 8, !tbaa !3
  %23 = getelementptr inbounds nuw %struct._lv_indev_t, ptr %22, i32 0, i32 18
  %24 = getelementptr inbounds nuw %struct.anon, ptr %23, i32 0, i32 6
  %25 = getelementptr inbounds nuw %struct.lv_point_t, ptr %24, i32 0, i32 0
  %26 = load i32, ptr %25, align 8, !tbaa !51
  store i32 %26, ptr %6, align 4, !tbaa !21
  br label %28

27:                                               ; preds = %13
  store i32 0, ptr %3, align 4
  store i32 1, ptr %7, align 4
  br label %47

28:                                               ; preds = %21, %15
  call void @llvm.lifetime.start.p0(i64 4, ptr %8) #6
  %29 = load ptr, ptr %4, align 8, !tbaa !3
  %30 = getelementptr inbounds nuw %struct._lv_indev_t, ptr %29, i32 0, i32 12
  %31 = load i8, ptr %30, align 1, !tbaa !47
  %32 = zext i8 %31 to i32
  store i32 %32, ptr %8, align 4, !tbaa !21
  call void @llvm.lifetime.start.p0(i64 4, ptr %9) #6
  store i32 0, ptr %9, align 4, !tbaa !21
  br label %33

33:                                               ; preds = %36, %28
  %34 = load i32, ptr %6, align 4, !tbaa !21
  %35 = icmp ne i32 %34, 0
  br i1 %35, label %36, label %45

36:                                               ; preds = %33
  %37 = load i32, ptr %6, align 4, !tbaa !21
  %38 = load i32, ptr %9, align 4, !tbaa !21
  %39 = add nsw i32 %38, %37
  store i32 %39, ptr %9, align 4, !tbaa !21
  %40 = load i32, ptr %6, align 4, !tbaa !21
  %41 = load i32, ptr %8, align 4, !tbaa !21
  %42 = sub nsw i32 100, %41
  %43 = mul nsw i32 %40, %42
  %44 = sdiv i32 %43, 100
  store i32 %44, ptr %6, align 4, !tbaa !21
  br label %33, !llvm.loop !52

45:                                               ; preds = %33
  %46 = load i32, ptr %9, align 4, !tbaa !21
  store i32 %46, ptr %3, align 4
  store i32 1, ptr %7, align 4
  call void @llvm.lifetime.end.p0(i64 4, ptr %9) #6
  call void @llvm.lifetime.end.p0(i64 4, ptr %8) #6
  br label %47

47:                                               ; preds = %45, %27
  call void @llvm.lifetime.end.p0(i64 4, ptr %6) #6
  br label %48

48:                                               ; preds = %47, %12
  %49 = load i32, ptr %3, align 4
  ret i32 %49
}