; Function Attrs: nofree norecurse nosync nounwind memory(argmem: read) uwtable
define i32 @lv_indev_scroll_throw_predict(ptr noundef readonly %0, i32 noundef %1) local_unnamed_addr #3 {
  %3 = icmp eq ptr %0, null
  br i1 %3, label %.loopexit, label %4

4:                                                ; preds = %2
  switch i32 %1, label %.loopexit [
    i32 12, label %6
    i32 3, label %5
  ]

5:                                                ; preds = %4
  br label %6

6:                                                ; preds = %4, %5
  %.sink = phi i64 [ 136, %5 ], [ 140, %4 ]
  %7 = getelementptr inbounds nuw i8, ptr %0, i64 %.sink
  %.012 = load i32, ptr %7, align 4, !tbaa !40
  %.not15 = icmp eq i32 %.012, 0
  br i1 %.not15, label %.loopexit, label %.lr.ph

.lr.ph:                                           ; preds = %6
  %8 = getelementptr inbounds nuw i8, ptr %0, i64 73
  %9 = load i8, ptr %8, align 1, !tbaa !37
  %10 = zext i8 %9 to i32
  %11 = sub nsw i32 100, %10
  br label %12

12:                                               ; preds = %.lr.ph, %12
  %.017 = phi i32 [ 0, %.lr.ph ], [ %13, %12 ]
  %.11316 = phi i32 [ %.012, %.lr.ph ], [ %15, %12 ]
  %13 = add nsw i32 %.017, %.11316
  %14 = mul nsw i32 %.11316, %11
  %15 = sdiv i32 %14, 100
  %.off = add i32 %14, 99
  %.not = icmp ult i32 %.off, 199
  br i1 %.not, label %.loopexit, label %12, !llvm.loop !41

.loopexit:                                        ; preds = %12, %6, %4, %2
  %.011 = phi i32 [ 0, %2 ], [ 0, %4 ], [ 0, %6 ], [ %13, %12 ]
  ret i32 %.011
}